; Function Attrs: nounwind uwtable
define noalias nonnull ptr @l_instInhabitedExcept___rarg(ptr noundef %0) #0 {
  tail call void @lean_inc_heartbeat() #11
  %2 = tail call noalias ptr @mi_malloc_small(i64 noundef 16) #11
  %3 = icmp eq ptr %2, null
  br i1 %3, label %4, label %lean_alloc_ctor.exit

4:                                                ; preds = %1
  tail call void @lean_internal_panic_out_of_memory() #12
  unreachable

lean_alloc_ctor.exit:                             ; preds = %1
  %5 = getelementptr inbounds nuw i8, ptr %2, i64 4
  store i32 1, ptr %2, align 4, !tbaa !4
  store i32 65552, ptr %5, align 4
  %6 = getelementptr inbounds nuw i8, ptr %2, i64 8
  store ptr %0, ptr %6, align 8, !tbaa !10
  ret ptr %2
}